; Function Attrs: null_pointer_is_valid sspstrong uwtable
define internal i32 @dissect_RC2WrapParameter_PDU(ptr noundef %0, ptr noundef %1, ptr noundef %2, ptr readnone captures(none) %3) #0 {
  %5 = alloca i32, align 4
  %6 = alloca %struct._asn1_ctx_t, align 8
  call void @llvm.lifetime.start.p0(i64 208, ptr nonnull %6) #6
  call void @asn1_ctx_init(ptr noundef nonnull %6, i32 noundef 0, i1 noundef zeroext true, ptr noundef %1)
  %7 = load i32, ptr @hf_cms_RC2WrapParameter_PDU, align 4
  call void @llvm.lifetime.start.p0(i64 4, ptr nonnull %5) #6
  store i32 0, ptr %5, align 4
  %8 = call i32 @dissect_ber_integer(i1 noundef zeroext false, ptr noundef nonnull %6, ptr noundef %2, ptr noundef %0, i32 noundef 0, i32 noundef %7, ptr noundef nonnull %5)
  %9 = load ptr, ptr @cap_tree, align 8
  %.not.i.i = icmp eq ptr %9, null
  br i1 %.not.i.i, label %dissect_cms_RC2WrapParameter.exit, label %10

10:                                               ; preds = %4
  %11 = load i32, ptr %5, align 4
  call void (ptr, ptr, ...) @proto_item_append_text(ptr noundef nonnull %9, ptr noundef nonnull @.str.689, i32 noundef %11)
  br label %dissect_cms_RC2WrapParameter.exit

dissect_cms_RC2WrapParameter.exit:                ; preds = %4, %10
  call void @llvm.lifetime.end.p0(i64 4, ptr nonnull %5) #6
  call void @llvm.lifetime.end.p0(i64 208, ptr nonnull %6) #6
  ret i32 %8
}